; Function Attrs: mustprogress uwtable
define void @_ZNK6duckdb16UniqueConstraint4CopyEv(ptr dead_on_unwind noalias nocapture writable writeonly sret(%"class.duckdb::unique_ptr.2") align 8 %agg.result, ptr noundef nonnull align 8 dereferenceable(49) %this) unnamed_addr #0 align 2 personality ptr @__gxx_personality_v0 {
entry:
  %result = alloca %"class.duckdb::unique_ptr.32", align 8
  %index = getelementptr inbounds i8, ptr %this, i64 16
  %0 = load i64, ptr %index, align 8, !tbaa !28
  %cmp = icmp eq i64 %0, -1
  %is_primary_key = getelementptr inbounds i8, ptr %this, i64 48
  br i1 %cmp, label %_ZNSt10unique_ptrIN6duckdb16UniqueConstraintESt14default_deleteIS1_EED2Ev.exit, label %if.else

_ZNSt10unique_ptrIN6duckdb16UniqueConstraintESt14default_deleteIS1_EED2Ev.exit: ; preds = %entry
  %columns = getelementptr inbounds i8, ptr %this, i64 24
  tail call void @_ZN6duckdb9make_uniqINS_16UniqueConstraintEJRKNS_6vectorINSt7__cxx1112basic_stringIcSt11char_traitsIcESaIcEEELb1EEERKbEEENS_11__unique_ifIT_Lb1EE15__unique_singleEDpOT0_(ptr dead_on_unwind nonnull writable sret(%"class.duckdb::unique_ptr.32") align 8 %agg.result, ptr noundef nonnull align 8 dereferenceable(24) %columns, ptr noundef nonnull align 1 dereferenceable(1) %is_primary_key)
  br label %return

if.else:                                          ; preds = %entry
  call void @llvm.lifetime.start.p0(i64 8, ptr nonnull %result) #17
  tail call void @llvm.experimental.noalias.scope.decl(metadata !58)
  %call.i = tail call noalias noundef nonnull dereferenceable(56) ptr @_Znwm(i64 noundef 56) #20, !noalias !58
  %1 = load i8, ptr %is_primary_key, align 8, !tbaa !61, !range !45, !noalias !58, !noundef !46
  %tobool.i = icmp ne i8 %1, 0
  invoke void @_ZN6duckdb16UniqueConstraintC1ENS_12LogicalIndexEb(ptr noundef nonnull align 8 dereferenceable(49) %call.i, i64 %0, i1 noundef zeroext %tobool.i)
          to label %_ZN6duckdb9make_uniqINS_16UniqueConstraintEJRKNS_12LogicalIndexERKbEEENS_11__unique_ifIT_Lb1EE15__unique_singleEDpOT0_.exit unwind label %lpad.i, !noalias !58

common.resume:                                    ; preds = %_ZNSt10unique_ptrIN6duckdb16UniqueConstraintESt14default_deleteIS1_EED2Ev.exit21, %lpad.i
  %common.resume.op = phi { ptr, i32 } [ %2, %lpad.i ], [ %4, %_ZNSt10unique_ptrIN6duckdb16UniqueConstraintESt14default_deleteIS1_EED2Ev.exit21 ]
  resume { ptr, i32 } %common.resume.op

lpad.i:                                           ; preds = %if.else
  %2 = landingpad { ptr, i32 }
          cleanup
  tail call void @_ZdlPv(ptr noundef nonnull %call.i) #19, !noalias !58
  br label %common.resume

_ZN6duckdb9make_uniqINS_16UniqueConstraintEJRKNS_12LogicalIndexERKbEEENS_11__unique_ifIT_Lb1EE15__unique_singleEDpOT0_.exit: ; preds = %if.else
  store ptr %call.i, ptr %result, align 8, !tbaa !6, !alias.scope !58
  %call = invoke noundef ptr @_ZNK6duckdb10unique_ptrINS_16UniqueConstraintESt14default_deleteIS1_ELb1EEptEv(ptr noundef nonnull align 8 dereferenceable(8) %result)
          to label %invoke.cont unwind label %lpad

invoke.cont:                                      ; preds = %_ZN6duckdb9make_uniqINS_16UniqueConstraintEJRKNS_12LogicalIndexERKbEEENS_11__unique_ifIT_Lb1EE15__unique_singleEDpOT0_.exit
  %columns5 = getelementptr inbounds i8, ptr %this, i64 24
  %columns6 = getelementptr inbounds i8, ptr %call, i64 24
  %call.i1011 = invoke noundef nonnull align 8 dereferenceable(24) ptr @_ZNSt6vectorINSt7__cxx1112basic_stringIcSt11char_traitsIcESaIcEEESaIS5_EEaSERKS7_(ptr noundef nonnull align 8 dereferenceable(24) %columns6, ptr noundef nonnull align 8 dereferenceable(24) %columns5)
          to label %_ZNSt10unique_ptrIN6duckdb16UniqueConstraintESt14default_deleteIS1_EED2Ev.exit16 unwind label %lpad

_ZNSt10unique_ptrIN6duckdb16UniqueConstraintESt14default_deleteIS1_EED2Ev.exit16: ; preds = %invoke.cont
  %3 = load ptr, ptr %result, align 8, !tbaa !6
  store ptr %3, ptr %agg.result, align 8, !tbaa !26
  call void @llvm.lifetime.end.p0(i64 8, ptr nonnull %result) #17
  br label %return

lpad:                                             ; preds = %invoke.cont, %_ZN6duckdb9make_uniqINS_16UniqueConstraintEJRKNS_12LogicalIndexERKbEEENS_11__unique_ifIT_Lb1EE15__unique_singleEDpOT0_.exit
  %4 = landingpad { ptr, i32 }
          cleanup
  %5 = load ptr, ptr %result, align 8, !tbaa !6
  %cmp.not.i17 = icmp eq ptr %5, null
  br i1 %cmp.not.i17, label %_ZNSt10unique_ptrIN6duckdb16UniqueConstraintESt14default_deleteIS1_EED2Ev.exit21, label %_ZNKSt14default_deleteIN6duckdb16UniqueConstraintEEclEPS1_.exit.i18

_ZNKSt14default_deleteIN6duckdb16UniqueConstraintEEclEPS1_.exit.i18: ; preds = %lpad
  %vtable.i.i19 = load ptr, ptr %5, align 8, !tbaa !3
  %vfn.i.i20 = getelementptr inbounds i8, ptr %vtable.i.i19, i64 8
  %6 = load ptr, ptr %vfn.i.i20, align 8
  call void %6(ptr noundef nonnull align 8 dereferenceable(49) %5) #17
  br label %_ZNSt10unique_ptrIN6duckdb16UniqueConstraintESt14default_deleteIS1_EED2Ev.exit21

_ZNSt10unique_ptrIN6duckdb16UniqueConstraintESt14default_deleteIS1_EED2Ev.exit21: ; preds = %_ZNKSt14default_deleteIN6duckdb16UniqueConstraintEEclEPS1_.exit.i18, %lpad
  call void @llvm.lifetime.end.p0(i64 8, ptr nonnull %result) #17
  br label %common.resume

return:                                           ; preds = %_ZNSt10unique_ptrIN6duckdb16UniqueConstraintESt14default_deleteIS1_EED2Ev.exit16, %_ZNSt10unique_ptrIN6duckdb16UniqueConstraintESt14default_deleteIS1_EED2Ev.exit
  ret void
}